; Function Attrs: nounwind uwtable
define zeroext range(i8 0, 2) i8 @l_Array_anyMUnsafe_any___at_Lean_IR_HasIndex_visitArgs___spec__1(ptr noundef %0, ptr noundef readonly captures(none) %1, i64 noundef %2, i64 noundef %3) local_unnamed_addr #0 {
  %.not30 = icmp eq i64 %2, %3
  br i1 %.not30, label %lean_dec.exit._crit_edge, label %.lr.ph

.lr.ph:                                           ; preds = %4
  %5 = getelementptr inbounds nuw i8, ptr %1, i64 24
  %6 = ptrtoint ptr %0 to i64
  %7 = and i64 %6, 1
  %8 = icmp ne i64 %7, 0
  br label %11

9:                                                ; preds = %lean_dec.exit
  %10 = add i64 %.01531, 1
  %.not = icmp eq i64 %10, %3
  br i1 %.not, label %lean_dec.exit._crit_edge, label %11

11:                                               ; preds = %.lr.ph, %9
  %.01531 = phi i64 [ %2, %.lr.ph ], [ %10, %9 ]
  %12 = getelementptr inbounds nuw [0 x ptr], ptr %5, i64 0, i64 %.01531
  %13 = load ptr, ptr %12, align 8, !tbaa !13
  %14 = ptrtoint ptr %13 to i64
  %15 = and i64 %14, 1
  %.not.i20 = icmp eq i64 %15, 0
  br i1 %.not.i20, label %16, label %lean_array_uget.exit

16:                                               ; preds = %11
  %.val.i.i = load i32, ptr %13, align 4, !tbaa !4
  %17 = icmp sgt i32 %.val.i.i, 0
  br i1 %17, label %18, label %20, !prof !9

18:                                               ; preds = %16
  %19 = add nuw i32 %.val.i.i, 1
  store i32 %19, ptr %13, align 4, !tbaa !4
  br label %24

20:                                               ; preds = %16
  %.not.i.i = icmp eq i32 %.val.i.i, 0
  br i1 %.not.i.i, label %24, label %21

21:                                               ; preds = %20
  tail call void @lean_inc_ref_cold(ptr noundef nonnull %13) #3
  br label %24

lean_array_uget.exit:                             ; preds = %11
  %22 = lshr i64 %14, 1
  %23 = trunc i64 %22 to i32
  br label %lean_obj_tag.exit.i

24:                                               ; preds = %18, %20, %21
  %25 = getelementptr i8, ptr %13, i64 4
  %.val.i.i22 = load i32, ptr %25, align 4
  %26 = lshr i32 %.val.i.i22, 24
  br label %lean_obj_tag.exit.i

lean_obj_tag.exit.i:                              ; preds = %24, %lean_array_uget.exit
  %.0.i6.i = phi i32 [ %23, %lean_array_uget.exit ], [ %26, %24 ]
  %27 = icmp eq i32 %.0.i6.i, 0
  br i1 %27, label %28, label %l_Lean_IR_HasIndex_visitArg.exit

28:                                               ; preds = %lean_obj_tag.exit.i
  %29 = getelementptr inbounds nuw i8, ptr %13, i64 8
  %30 = load ptr, ptr %29, align 8, !tbaa !13
  %31 = ptrtoint ptr %30 to i64
  %32 = and i64 %31, 1
  %33 = icmp ne i64 %32, 0
  %or.cond.i = select i1 %8, i1 %33, i1 false
  br i1 %or.cond.i, label %34, label %.critedge.i.i, !prof !23

34:                                               ; preds = %28
  %35 = icmp eq ptr %0, %30
  br label %lean_nat_eq.exit.i

.critedge.i.i:                                    ; preds = %28
  %36 = tail call zeroext i1 @lean_nat_big_eq(ptr noundef %0, ptr noundef %30) #3
  br label %lean_nat_eq.exit.i

lean_nat_eq.exit.i:                               ; preds = %.critedge.i.i, %34
  %.0.i.i = phi i1 [ %35, %34 ], [ %36, %.critedge.i.i ]
  %37 = xor i1 %.0.i.i, true
  br label %l_Lean_IR_HasIndex_visitArg.exit

l_Lean_IR_HasIndex_visitArg.exit:                 ; preds = %lean_obj_tag.exit.i, %lean_nat_eq.exit.i
  %.0.i = phi i1 [ %37, %lean_nat_eq.exit.i ], [ true, %lean_obj_tag.exit.i ]
  br i1 %.not.i20, label %38, label %lean_dec.exit

38:                                               ; preds = %l_Lean_IR_HasIndex_visitArg.exit
  %39 = load i32, ptr %13, align 4, !tbaa !4
  %40 = icmp sgt i32 %39, 1
  br i1 %40, label %41, label %43, !prof !9

41:                                               ; preds = %38
  %42 = add nsw i32 %39, -1
  store i32 %42, ptr %13, align 4, !tbaa !4
  br label %lean_dec.exit

43:                                               ; preds = %38
  %.not.i = icmp eq i32 %39, 0
  br i1 %.not.i, label %lean_dec.exit, label %44

44:                                               ; preds = %43
  tail call void @lean_dec_ref_cold(ptr noundef nonnull %13) #3
  br label %lean_dec.exit

lean_dec.exit:                                    ; preds = %44, %43, %41, %l_Lean_IR_HasIndex_visitArg.exit
  br i1 %.0.i, label %9, label %lean_dec.exit._crit_edge

lean_dec.exit._crit_edge:                         ; preds = %9, %lean_dec.exit, %4
  %.2.ph = phi i8 [ 0, %4 ], [ 1, %lean_dec.exit ], [ 0, %9 ]
  ret i8 %.2.ph
}